target datalayout = "e-m:e-p270:32:32-p271:32:32-p272:64:64-i64:64-i128:128-f80:128-n8:16:32:64-S128"
target triple = "x86_64-pc-linux-gnu"

%struct.DH_PKEY_CTX = type { i32, i32, i32, i32, i32, ptr, i32, [2 x i32], i8, ptr, ptr, ptr, i64, i64 }
%struct.evp_pkey_ctx_st = type { i32, ptr, ptr, ptr, ptr, %union.anon, %struct.anon.4, ptr, ptr, ptr, i32, i32, ptr, ptr, ptr, ptr, ptr, i8, ptr }
%union.anon = type { %struct.anon.0 }
%struct.anon.0 = type { ptr, ptr }
%struct.anon.4 = type { ptr, ptr, i64, i8 }
%struct.dh_st = type { i32, i32, %struct.ffc_params_st, i32, ptr, ptr, i32, ptr, %struct.CRYPTO_REF_COUNT, %struct.crypto_ex_data_st, ptr, ptr, ptr, ptr, i64 }
%struct.ffc_params_st = type { ptr, ptr, ptr, ptr, ptr, i64, i32, i32, i32, i32, i32, ptr, ptr, i32 }
%struct.CRYPTO_REF_COUNT = type { i32 }
%struct.crypto_ex_data_st = type { ptr, ptr }

@.str = private unnamed_addr constant [32 x i8] c"../openssl/crypto/dh/dh_pmeth.c\00", align 1
@__func__.pkey_dh_derive = private unnamed_addr constant [15 x i8] c"pkey_dh_derive\00", align 1

; Function Attrs: nounwind uwtable
define internal i32 @pkey_dh_derive(ptr noundef %0, ptr noundef %1, ptr noundef %2) #0 {
  %4 = alloca i32, align 4
  %5 = alloca ptr, align 8
  %6 = alloca ptr, align 8
  %7 = alloca ptr, align 8
  %8 = alloca i32, align 4
  %9 = alloca ptr, align 8
  %10 = alloca ptr, align 8
  %11 = alloca ptr, align 8
  %12 = alloca ptr, align 8
  %13 = alloca i32, align 4
  %14 = alloca ptr, align 8
  %15 = alloca i32, align 4
  store ptr %0, ptr %5, align 8, !tbaa !3
  store ptr %1, ptr %6, align 8, !tbaa !51
  store ptr %2, ptr %7, align 8, !tbaa !52
  call void @llvm.lifetime.start.p0(i64 4, ptr %8) #6
  call void @llvm.lifetime.start.p0(i64 8, ptr %9) #6
  call void @llvm.lifetime.start.p0(i64 8, ptr %10) #6
  call void @llvm.lifetime.start.p0(i64 8, ptr %11) #6
  %16 = load ptr, ptr %5, align 8, !tbaa !3
  %17 = getelementptr inbounds nuw %struct.evp_pkey_ctx_st, ptr %16, i32 0, i32 16
  %18 = load ptr, ptr %17, align 8, !tbaa !19
  store ptr %18, ptr %11, align 8, !tbaa !8
  call void @llvm.lifetime.start.p0(i64 8, ptr %12) #6
  %19 = load ptr, ptr %5, align 8, !tbaa !3
  %20 = getelementptr inbounds nuw %struct.evp_pkey_ctx_st, ptr %19, i32 0, i32 14
  %21 = load ptr, ptr %20, align 8, !tbaa !47
  %22 = icmp eq ptr %21, null
  br i1 %22, label %28, label %23

23:                                               ; preds = %3
  %24 = load ptr, ptr %5, align 8, !tbaa !3
  %25 = getelementptr inbounds nuw %struct.evp_pkey_ctx_st, ptr %24, i32 0, i32 15
  %26 = load ptr, ptr %25, align 8, !tbaa !54
  %27 = icmp eq ptr %26, null
  br i1 %27, label %28, label %29

28:                                               ; preds = %23, %3
  call void @ERR_new()
  call void @ERR_set_debug(ptr noundef @.str, i32 noundef 406, ptr noundef @__func__.pkey_dh_derive)
  call void (i32, i32, ptr, ...) @ERR_set_error(i32 noundef 5, i32 noundef 108, ptr noundef null)
  store i32 0, ptr %4, align 4
  store i32 1, ptr %13, align 4
  br label %168

29:                                               ; preds = %23
  %30 = load ptr, ptr %5, align 8, !tbaa !3
  %31 = getelementptr inbounds nuw %struct.evp_pkey_ctx_st, ptr %30, i32 0, i32 14
  %32 = load ptr, ptr %31, align 8, !tbaa !47
  %33 = call ptr @EVP_PKEY_get0_DH(ptr noundef %32)
  store ptr %33, ptr %9, align 8, !tbaa !41
  %34 = load ptr, ptr %5, align 8, !tbaa !3
  %35 = getelementptr inbounds nuw %struct.evp_pkey_ctx_st, ptr %34, i32 0, i32 15
  %36 = load ptr, ptr %35, align 8, !tbaa !54
  %37 = call ptr @EVP_PKEY_get0_DH(ptr noundef %36)
  store ptr %37, ptr %10, align 8, !tbaa !41
  %38 = load ptr, ptr %10, align 8, !tbaa !41
  %39 = icmp eq ptr %38, null
  br i1 %39, label %40, label %41

40:                                               ; preds = %29
  call void @ERR_new()
  call void @ERR_set_debug(ptr noundef @.str, i32 noundef 412, ptr noundef @__func__.pkey_dh_derive)
  call void (i32, i32, ptr, ...) @ERR_set_error(i32 noundef 5, i32 noundef 108, ptr noundef null)
  store i32 0, ptr %4, align 4
  store i32 1, ptr %13, align 4
  br label %168

41:                                               ; preds = %29
  %42 = load ptr, ptr %10, align 8, !tbaa !41
  %43 = getelementptr inbounds nuw %struct.dh_st, ptr %42, i32 0, i32 4
  %44 = load ptr, ptr %43, align 8, !tbaa !55
  store ptr %44, ptr %12, align 8, !tbaa !63
  %45 = load ptr, ptr %11, align 8, !tbaa !8
  %46 = getelementptr inbounds nuw %struct.DH_PKEY_CTX, ptr %45, i32 0, i32 8
  %47 = load i8, ptr %46, align 4, !tbaa !18
  %48 = sext i8 %47 to i32
  %49 = icmp eq i32 %48, 1
  br i1 %49, label %50, label %82

50:                                               ; preds = %41
  %51 = load ptr, ptr %6, align 8, !tbaa !51
  %52 = icmp eq ptr %51, null
  br i1 %52, label %53, label %58

53:                                               ; preds = %50
  %54 = load ptr, ptr %9, align 8, !tbaa !41
  %55 = call i32 @DH_size(ptr noundef %54)
  %56 = sext i32 %55 to i64
  %57 = load ptr, ptr %7, align 8, !tbaa !52
  store i64 %56, ptr %57, align 8, !tbaa !64
  store i32 1, ptr %4, align 4
  store i32 1, ptr %13, align 4
  br label %168

58:                                               ; preds = %50
  %59 = load ptr, ptr %11, align 8, !tbaa !8
  %60 = getelementptr inbounds nuw %struct.DH_PKEY_CTX, ptr %59, i32 0, i32 4
  %61 = load i32, ptr %60, align 8, !tbaa !32
  %62 = icmp ne i32 %61, 0
  br i1 %62, label %63, label %68

63:                                               ; preds = %58
  %64 = load ptr, ptr %6, align 8, !tbaa !51
  %65 = load ptr, ptr %12, align 8, !tbaa !63
  %66 = load ptr, ptr %9, align 8, !tbaa !41
  %67 = call i32 @DH_compute_key_padded(ptr noundef %64, ptr noundef %65, ptr noundef %66)
  store i32 %67, ptr %8, align 4, !tbaa !45
  br label %73

68:                                               ; preds = %58
  %69 = load ptr, ptr %6, align 8, !tbaa !51
  %70 = load ptr, ptr %12, align 8, !tbaa !63
  %71 = load ptr, ptr %9, align 8, !tbaa !41
  %72 = call i32 @DH_compute_key(ptr noundef %69, ptr noundef %70, ptr noundef %71)
  store i32 %72, ptr %8, align 4, !tbaa !45
  br label %73

73:                                               ; preds = %68, %63
  %74 = load i32, ptr %8, align 4, !tbaa !45
  %75 = icmp slt i32 %74, 0
  br i1 %75, label %76, label %78

76:                                               ; preds = %73
  %77 = load i32, ptr %8, align 4, !tbaa !45
  store i32 %77, ptr %4, align 4
  store i32 1, ptr %13, align 4
  br label %168

78:                                               ; preds = %73
  %79 = load i32, ptr %8, align 4, !tbaa !45
  %80 = sext i32 %79 to i64
  %81 = load ptr, ptr %7, align 8, !tbaa !52
  store i64 %80, ptr %81, align 8, !tbaa !64
  store i32 1, ptr %4, align 4
  store i32 1, ptr %13, align 4
  br label %168

82:                                               ; preds = %41
  %83 = load ptr, ptr %11, align 8, !tbaa !8
  %84 = getelementptr inbounds nuw %struct.DH_PKEY_CTX, ptr %83, i32 0, i32 8
  %85 = load i8, ptr %84, align 4, !tbaa !18
  %86 = sext i8 %85 to i32
  %87 = icmp eq i32 %86, 2
  br i1 %87, label %88, label %166

88:                                               ; preds = %82
  call void @llvm.lifetime.start.p0(i64 8, ptr %14) #6
  store ptr null, ptr %14, align 8, !tbaa !51
  call void @llvm.lifetime.start.p0(i64 4, ptr %15) #6
  store i32 0, ptr %15, align 4, !tbaa !45
  %89 = load ptr, ptr %11, align 8, !tbaa !8
  %90 = getelementptr inbounds nuw %struct.DH_PKEY_CTX, ptr %89, i32 0, i32 13
  %91 = load i64, ptr %90, align 8, !tbaa !39
  %92 = icmp ne i64 %91, 0
  br i1 %92, label %93, label %98

93:                                               ; preds = %88
  %94 = load ptr, ptr %11, align 8, !tbaa !8
  %95 = getelementptr inbounds nuw %struct.DH_PKEY_CTX, ptr %94, i32 0, i32 9
  %96 = load ptr, ptr %95, align 8, !tbaa !35
  %97 = icmp ne ptr %96, null
  br i1 %97, label %99, label %98

98:                                               ; preds = %93, %88
  store i32 0, ptr %4, align 4
  store i32 1, ptr %13, align 4
  br label %165

99:                                               ; preds = %93
  %100 = load ptr, ptr %6, align 8, !tbaa !51
  %101 = icmp eq ptr %100, null
  br i1 %101, label %102, label %107

102:                                              ; preds = %99
  %103 = load ptr, ptr %11, align 8, !tbaa !8
  %104 = getelementptr inbounds nuw %struct.DH_PKEY_CTX, ptr %103, i32 0, i32 13
  %105 = load i64, ptr %104, align 8, !tbaa !39
  %106 = load ptr, ptr %7, align 8, !tbaa !52
  store i64 %105, ptr %106, align 8, !tbaa !64
  store i32 1, ptr %4, align 4
  store i32 1, ptr %13, align 4
  br label %165

107:                                              ; preds = %99
  %108 = load ptr, ptr %7, align 8, !tbaa !52
  %109 = load i64, ptr %108, align 8, !tbaa !64
  %110 = load ptr, ptr %11, align 8, !tbaa !8
  %111 = getelementptr inbounds nuw %struct.DH_PKEY_CTX, ptr %110, i32 0, i32 13
  %112 = load i64, ptr %111, align 8, !tbaa !39
  %113 = icmp ne i64 %109, %112
  br i1 %113, label %114, label %115

114:                                              ; preds = %107
  store i32 0, ptr %4, align 4
  store i32 1, ptr %13, align 4
  br label %165

115:                                              ; preds = %107
  store i32 0, ptr %8, align 4, !tbaa !45
  %116 = load ptr, ptr %9, align 8, !tbaa !41
  %117 = call i32 @DH_size(ptr noundef %116)
  store i32 %117, ptr %15, align 4, !tbaa !45
  %118 = icmp sle i32 %117, 0
  br i1 %118, label %119, label %120

119:                                              ; preds = %115
  store i32 0, ptr %4, align 4
  store i32 1, ptr %13, align 4
  br label %165

120:                                              ; preds = %115
  %121 = load i32, ptr %15, align 4, !tbaa !45
  %122 = sext i32 %121 to i64
  %123 = call noalias ptr @CRYPTO_malloc(i64 noundef %122, ptr noundef @.str, i32 noundef 446)
  store ptr %123, ptr %14, align 8, !tbaa !51
  %124 = icmp eq ptr %123, null
  br i1 %124, label %125, label %126

125:                                              ; preds = %120
  store i32 0, ptr %4, align 4
  store i32 1, ptr %13, align 4
  br label %165

126:                                              ; preds = %120
  %127 = load ptr, ptr %14, align 8, !tbaa !51
  %128 = load ptr, ptr %12, align 8, !tbaa !63
  %129 = load ptr, ptr %9, align 8, !tbaa !41
  %130 = call i32 @DH_compute_key_padded(ptr noundef %127, ptr noundef %128, ptr noundef %129)
  %131 = icmp sle i32 %130, 0
  br i1 %131, label %132, label %133

132:                                              ; preds = %126
  br label %160

133:                                              ; preds = %126
  %134 = load ptr, ptr %6, align 8, !tbaa !51
  %135 = load ptr, ptr %7, align 8, !tbaa !52
  %136 = load i64, ptr %135, align 8, !tbaa !64
  %137 = load ptr, ptr %14, align 8, !tbaa !51
  %138 = load i32, ptr %15, align 4, !tbaa !45
  %139 = sext i32 %138 to i64
  %140 = load ptr, ptr %11, align 8, !tbaa !8
  %141 = getelementptr inbounds nuw %struct.DH_PKEY_CTX, ptr %140, i32 0, i32 9
  %142 = load ptr, ptr %141, align 8, !tbaa !35
  %143 = load ptr, ptr %11, align 8, !tbaa !8
  %144 = getelementptr inbounds nuw %struct.DH_PKEY_CTX, ptr %143, i32 0, i32 11
  %145 = load ptr, ptr %144, align 8, !tbaa !37
  %146 = load ptr, ptr %11, align 8, !tbaa !8
  %147 = getelementptr inbounds nuw %struct.DH_PKEY_CTX, ptr %146, i32 0, i32 12
  %148 = load i64, ptr %147, align 8, !tbaa !38
  %149 = load ptr, ptr %11, align 8, !tbaa !8
  %150 = getelementptr inbounds nuw %struct.DH_PKEY_CTX, ptr %149, i32 0, i32 10
  %151 = load ptr, ptr %150, align 8, !tbaa !36
  %152 = call i32 @DH_KDF_X9_42(ptr noundef %134, i64 noundef %136, ptr noundef %137, i64 noundef %139, ptr noundef %142, ptr noundef %145, i64 noundef %148, ptr noundef %151)
  %153 = icmp ne i32 %152, 0
  br i1 %153, label %155, label %154

154:                                              ; preds = %133
  br label %160

155:                                              ; preds = %133
  %156 = load ptr, ptr %11, align 8, !tbaa !8
  %157 = getelementptr inbounds nuw %struct.DH_PKEY_CTX, ptr %156, i32 0, i32 13
  %158 = load i64, ptr %157, align 8, !tbaa !39
  %159 = load ptr, ptr %7, align 8, !tbaa !52
  store i64 %158, ptr %159, align 8, !tbaa !64
  store i32 1, ptr %8, align 4, !tbaa !45
  br label %160

160:                                              ; preds = %155, %154, %132
  %161 = load ptr, ptr %14, align 8, !tbaa !51
  %162 = load i32, ptr %15, align 4, !tbaa !45
  %163 = sext i32 %162 to i64
  call void @CRYPTO_clear_free(ptr noundef %161, i64 noundef %163, ptr noundef @.str, i32 noundef 456)
  %164 = load i32, ptr %8, align 4, !tbaa !45
  store i32 %164, ptr %4, align 4
  store i32 1, ptr %13, align 4
  br label %165

165:                                              ; preds = %160, %125, %119, %114, %102, %98
  call void @llvm.lifetime.end.p0(i64 4, ptr %15) #6
  call void @llvm.lifetime.end.p0(i64 8, ptr %14) #6
  br label %168

166:                                              ; preds = %82
  br label %167

167:                                              ; preds = %166
  store i32 0, ptr %4, align 4
  store i32 1, ptr %13, align 4
  br label %168

168:                                              ; preds = %167, %165, %78, %76, %53, %40, %28
  call void @llvm.lifetime.end.p0(i64 8, ptr %12) #6
  call void @llvm.lifetime.end.p0(i64 8, ptr %11) #6
  call void @llvm.lifetime.end.p0(i64 8, ptr %10) #6
  call void @llvm.lifetime.end.p0(i64 8, ptr %9) #6
  call void @llvm.lifetime.end.p0(i64 4, ptr %8) #6
  %169 = load i32, ptr %4, align 4
  ret i32 %169
}