; Function Attrs: nounwind uwtable
define internal range(i32 -2147483648, 2) i32 @pkey_dh_derive(ptr noundef readonly captures(none) %0, ptr noundef %1, ptr noundef captures(none) %2) #1 {
  %4 = getelementptr inbounds nuw i8, ptr %0, i64 152
  %5 = load ptr, ptr %4, align 8, !tbaa !16
  %6 = getelementptr inbounds nuw i8, ptr %0, i64 136
  %7 = load ptr, ptr %6, align 8, !tbaa !38
  %8 = icmp eq ptr %7, null
  br i1 %8, label %13, label %9

9:                                                ; preds = %3
  %10 = getelementptr inbounds nuw i8, ptr %0, i64 144
  %11 = load ptr, ptr %10, align 8, !tbaa !42
  %12 = icmp eq ptr %11, null
  br i1 %12, label %13, label %14

13:                                               ; preds = %9, %3
  tail call void @ERR_new() #6
  tail call void @ERR_set_debug(ptr noundef nonnull @.str, i32 noundef 406, ptr noundef nonnull @__func__.pkey_dh_derive) #6
  tail call void (i32, i32, ptr, ...) @ERR_set_error(i32 noundef 5, i32 noundef 108, ptr noundef null) #6
  br label %75

14:                                               ; preds = %9
  %15 = tail call ptr @EVP_PKEY_get0_DH(ptr noundef nonnull %7) #6
  %16 = load ptr, ptr %10, align 8, !tbaa !42
  %17 = tail call ptr @EVP_PKEY_get0_DH(ptr noundef %16) #6
  %18 = icmp eq ptr %17, null
  br i1 %18, label %19, label %20

19:                                               ; preds = %14
  tail call void @ERR_new() #6
  tail call void @ERR_set_debug(ptr noundef nonnull @.str, i32 noundef 412, ptr noundef nonnull @__func__.pkey_dh_derive) #6
  tail call void (i32, i32, ptr, ...) @ERR_set_error(i32 noundef 5, i32 noundef 108, ptr noundef null) #6
  br label %75

20:                                               ; preds = %14
  %21 = getelementptr inbounds nuw i8, ptr %17, i64 112
  %22 = load ptr, ptr %21, align 8, !tbaa !43
  %23 = getelementptr inbounds nuw i8, ptr %5, i64 44
  %24 = load i8, ptr %23, align 4, !tbaa !15
  switch i8 %24, label %75 [
    i8 1, label %25
    i8 2, label %41
  ]

25:                                               ; preds = %20
  %26 = icmp eq ptr %1, null
  br i1 %26, label %27, label %30

27:                                               ; preds = %25
  %28 = tail call i32 @DH_size(ptr noundef %15) #6
  %29 = sext i32 %28 to i64
  store i64 %29, ptr %2, align 8, !tbaa !51
  br label %75

30:                                               ; preds = %25
  %31 = getelementptr inbounds nuw i8, ptr %5, i64 16
  %32 = load i32, ptr %31, align 8, !tbaa !29
  %.not61 = icmp eq i32 %32, 0
  br i1 %.not61, label %35, label %33

33:                                               ; preds = %30
  %34 = tail call i32 @DH_compute_key_padded(ptr noundef nonnull %1, ptr noundef %22, ptr noundef %15) #6
  br label %37

35:                                               ; preds = %30
  %36 = tail call i32 @DH_compute_key(ptr noundef nonnull %1, ptr noundef %22, ptr noundef %15) #6
  br label %37

37:                                               ; preds = %35, %33
  %.048 = phi i32 [ %34, %33 ], [ %36, %35 ]
  %38 = icmp slt i32 %.048, 0
  br i1 %38, label %75, label %39

39:                                               ; preds = %37
  %40 = zext nneg i32 %.048 to i64
  store i64 %40, ptr %2, align 8, !tbaa !51
  br label %75

41:                                               ; preds = %20
  %42 = getelementptr inbounds nuw i8, ptr %5, i64 80
  %43 = load i64, ptr %42, align 8, !tbaa !36
  %.not = icmp eq i64 %43, 0
  br i1 %.not, label %75, label %44

44:                                               ; preds = %41
  %45 = getelementptr inbounds nuw i8, ptr %5, i64 48
  %46 = load ptr, ptr %45, align 8, !tbaa !32
  %.not58 = icmp eq ptr %46, null
  br i1 %.not58, label %75, label %47

47:                                               ; preds = %44
  %48 = icmp eq ptr %1, null
  br i1 %48, label %49, label %50

49:                                               ; preds = %47
  store i64 %43, ptr %2, align 8, !tbaa !51
  br label %75

50:                                               ; preds = %47
  %51 = load i64, ptr %2, align 8, !tbaa !51
  %.not59 = icmp eq i64 %51, %43
  br i1 %.not59, label %52, label %75

52:                                               ; preds = %50
  %53 = tail call i32 @DH_size(ptr noundef %15) #6
  %54 = icmp slt i32 %53, 1
  br i1 %54, label %75, label %55

55:                                               ; preds = %52
  %56 = zext nneg i32 %53 to i64
  %57 = tail call noalias ptr @CRYPTO_malloc(i64 noundef %56, ptr noundef nonnull @.str, i32 noundef 446) #6
  %58 = icmp eq ptr %57, null
  br i1 %58, label %75, label %59

59:                                               ; preds = %55
  %60 = tail call i32 @DH_compute_key_padded(ptr noundef nonnull %57, ptr noundef %22, ptr noundef %15) #6
  %61 = icmp slt i32 %60, 1
  br i1 %61, label %74, label %62

62:                                               ; preds = %59
  %63 = load i64, ptr %2, align 8, !tbaa !51
  %64 = load ptr, ptr %45, align 8, !tbaa !32
  %65 = getelementptr inbounds nuw i8, ptr %5, i64 64
  %66 = load ptr, ptr %65, align 8, !tbaa !34
  %67 = getelementptr inbounds nuw i8, ptr %5, i64 72
  %68 = load i64, ptr %67, align 8, !tbaa !35
  %69 = getelementptr inbounds nuw i8, ptr %5, i64 56
  %70 = load ptr, ptr %69, align 8, !tbaa !33
  %71 = tail call i32 @DH_KDF_X9_42(ptr noundef nonnull %1, i64 noundef %63, ptr noundef nonnull %57, i64 noundef %56, ptr noundef %64, ptr noundef %66, i64 noundef %68, ptr noundef %70) #6
  %.not60 = icmp eq i32 %71, 0
  br i1 %.not60, label %74, label %72

72:                                               ; preds = %62
  %73 = load i64, ptr %42, align 8, !tbaa !36
  store i64 %73, ptr %2, align 8, !tbaa !51
  br label %74

74:                                               ; preds = %62, %59, %72
  %.149 = phi i32 [ 0, %59 ], [ 1, %72 ], [ 0, %62 ]
  tail call void @CRYPTO_clear_free(ptr noundef nonnull %57, i64 noundef %56, ptr noundef nonnull @.str, i32 noundef 456) #6
  br label %75

75:                                               ; preds = %20, %49, %74, %44, %41, %50, %52, %55, %37, %39, %27, %19, %13
  %.0 = phi i32 [ 0, %13 ], [ 0, %19 ], [ 1, %27 ], [ 1, %39 ], [ %.048, %37 ], [ 1, %49 ], [ %.149, %74 ], [ 0, %44 ], [ 0, %41 ], [ 0, %50 ], [ 0, %52 ], [ 0, %55 ], [ 0, %20 ]
  ret i32 %.0
}